target datalayout = "e-m:e-p270:32:32-p271:32:32-p272:64:64-i64:64-i128:128-f80:128-n8:16:32:64-S128"
target triple = "x86_64-pc-linux-gnu"

%"class.g2o::MatrixStructure" = type { i32, i32, ptr, ptr, i32, i32 }

; Function Attrs: mustprogress uwtable
define void @_ZN3g2o15MatrixStructure5allocEii(ptr noundef nonnull align 8 dereferenceable(32) %0, i32 noundef %1, i32 noundef %2) #2 align 2 {
  %4 = alloca ptr, align 8
  %5 = alloca i32, align 4
  %6 = alloca i32, align 4
  store ptr %0, ptr %4, align 8, !tbaa !3
  store i32 %1, ptr %5, align 4, !tbaa !17
  store i32 %2, ptr %6, align 4, !tbaa !17
  %7 = load ptr, ptr %4, align 8
  %8 = getelementptr inbounds nuw %"class.g2o::MatrixStructure", ptr %7, i32 0, i32 0
  %9 = load i32, ptr %8, align 8, !tbaa !8
  %10 = icmp eq i32 %9, 0
  br i1 %10, label %11, label %36

11:                                               ; preds = %3
  %12 = load i32, ptr %5, align 4, !tbaa !17
  %13 = getelementptr inbounds nuw %"class.g2o::MatrixStructure", ptr %7, i32 0, i32 0
  store i32 %12, ptr %13, align 8, !tbaa !8
  %14 = getelementptr inbounds nuw %"class.g2o::MatrixStructure", ptr %7, i32 0, i32 4
  store i32 %12, ptr %14, align 8, !tbaa !15
  %15 = load i32, ptr %6, align 4, !tbaa !17
  %16 = getelementptr inbounds nuw %"class.g2o::MatrixStructure", ptr %7, i32 0, i32 5
  store i32 %15, ptr %16, align 4, !tbaa !16
  %17 = getelementptr inbounds nuw %"class.g2o::MatrixStructure", ptr %7, i32 0, i32 4
  %18 = load i32, ptr %17, align 8, !tbaa !15
  %19 = add nsw i32 %18, 1
  %20 = sext i32 %19 to i64
  %21 = call { i64, i1 } @llvm.umul.with.overflow.i64(i64 %20, i64 4)
  %22 = extractvalue { i64, i1 } %21, 1
  %23 = extractvalue { i64, i1 } %21, 0
  %24 = select i1 %22, i64 -1, i64 %23
  %25 = call noalias noundef nonnull ptr @_Znam(i64 noundef %24) #18
  %26 = getelementptr inbounds nuw %"class.g2o::MatrixStructure", ptr %7, i32 0, i32 2
  store ptr %25, ptr %26, align 8, !tbaa !13
  %27 = getelementptr inbounds nuw %"class.g2o::MatrixStructure", ptr %7, i32 0, i32 5
  %28 = load i32, ptr %27, align 4, !tbaa !16
  %29 = sext i32 %28 to i64
  %30 = call { i64, i1 } @llvm.umul.with.overflow.i64(i64 %29, i64 4)
  %31 = extractvalue { i64, i1 } %30, 1
  %32 = extractvalue { i64, i1 } %30, 0
  %33 = select i1 %31, i64 -1, i64 %32
  %34 = call noalias noundef nonnull ptr @_Znam(i64 noundef %33) #18
  %35 = getelementptr inbounds nuw %"class.g2o::MatrixStructure", ptr %7, i32 0, i32 3
  store ptr %34, ptr %35, align 8, !tbaa !14
  br label %88

36:                                               ; preds = %3
  %37 = load i32, ptr %5, align 4, !tbaa !17
  %38 = getelementptr inbounds nuw %"class.g2o::MatrixStructure", ptr %7, i32 0, i32 0
  store i32 %37, ptr %38, align 8, !tbaa !8
  %39 = getelementptr inbounds nuw %"class.g2o::MatrixStructure", ptr %7, i32 0, i32 5
  %40 = load i32, ptr %39, align 4, !tbaa !16
  %41 = load i32, ptr %6, align 4, !tbaa !17
  %42 = icmp slt i32 %40, %41
  br i1 %42, label %43, label %61

43:                                               ; preds = %36
  %44 = load i32, ptr %6, align 4, !tbaa !17
  %45 = mul nsw i32 2, %44
  %46 = getelementptr inbounds nuw %"class.g2o::MatrixStructure", ptr %7, i32 0, i32 5
  store i32 %45, ptr %46, align 4, !tbaa !16
  %47 = getelementptr inbounds nuw %"class.g2o::MatrixStructure", ptr %7, i32 0, i32 3
  %48 = load ptr, ptr %47, align 8, !tbaa !14
  %49 = icmp eq ptr %48, null
  br i1 %49, label %51, label %50

50:                                               ; preds = %43
  call void @_ZdaPv(ptr noundef %48) #16
  br label %51

51:                                               ; preds = %50, %43
  %52 = getelementptr inbounds nuw %"class.g2o::MatrixStructure", ptr %7, i32 0, i32 5
  %53 = load i32, ptr %52, align 4, !tbaa !16
  %54 = sext i32 %53 to i64
  %55 = call { i64, i1 } @llvm.umul.with.overflow.i64(i64 %54, i64 4)
  %56 = extractvalue { i64, i1 } %55, 1
  %57 = extractvalue { i64, i1 } %55, 0
  %58 = select i1 %56, i64 -1, i64 %57
  %59 = call noalias noundef nonnull ptr @_Znam(i64 noundef %58) #18
  %60 = getelementptr inbounds nuw %"class.g2o::MatrixStructure", ptr %7, i32 0, i32 3
  store ptr %59, ptr %60, align 8, !tbaa !14
  br label %61

61:                                               ; preds = %51, %36
  %62 = getelementptr inbounds nuw %"class.g2o::MatrixStructure", ptr %7, i32 0, i32 4
  %63 = load i32, ptr %62, align 8, !tbaa !15
  %64 = getelementptr inbounds nuw %"class.g2o::MatrixStructure", ptr %7, i32 0, i32 0
  %65 = load i32, ptr %64, align 8, !tbaa !8
  %66 = icmp slt i32 %63, %65
  br i1 %66, label %67, label %87

67:                                               ; preds = %61
  %68 = getelementptr inbounds nuw %"class.g2o::MatrixStructure", ptr %7, i32 0, i32 0
  %69 = load i32, ptr %68, align 8, !tbaa !8
  %70 = mul nsw i32 2, %69
  %71 = getelementptr inbounds nuw %"class.g2o::MatrixStructure", ptr %7, i32 0, i32 4
  store i32 %70, ptr %71, align 8, !tbaa !15
  %72 = getelementptr inbounds nuw %"class.g2o::MatrixStructure", ptr %7, i32 0, i32 2
  %73 = load ptr, ptr %72, align 8, !tbaa !13
  %74 = icmp eq ptr %73, null
  br i1 %74, label %76, label %75

75:                                               ; preds = %67
  call void @_ZdaPv(ptr noundef %73) #16
  br label %76

76:                                               ; preds = %75, %67
  %77 = getelementptr inbounds nuw %"class.g2o::MatrixStructure", ptr %7, i32 0, i32 4
  %78 = load i32, ptr %77, align 8, !tbaa !15
  %79 = add nsw i32 %78, 1
  %80 = sext i32 %79 to i64
  %81 = call { i64, i1 } @llvm.umul.with.overflow.i64(i64 %80, i64 4)
  %82 = extractvalue { i64, i1 } %81, 1
  %83 = extractvalue { i64, i1 } %81, 0
  %84 = select i1 %82, i64 -1, i64 %83
  %85 = call noalias noundef nonnull ptr @_Znam(i64 noundef %84) #18
  %86 = getelementptr inbounds nuw %"class.g2o::MatrixStructure", ptr %7, i32 0, i32 2
  store ptr %85, ptr %86, align 8, !tbaa !13
  br label %87

87:                                               ; preds = %76, %61
  br label %88

88:                                               ; preds = %87, %11
  ret void
}