; Function Attrs: mustprogress uwtable
define void @_ZN3g2o15MatrixStructure5allocEii(ptr noundef nonnull align 8 captures(none) dereferenceable(32) %0, i32 noundef %1, i32 noundef %2) local_unnamed_addr #2 align 2 {
  %4 = load i32, ptr %0, align 8, !tbaa !3
  %5 = icmp eq i32 %4, 0
  store i32 %1, ptr %0, align 8, !tbaa !3
  br i1 %5, label %6, label %22

6:                                                ; preds = %3
  %7 = getelementptr inbounds nuw i8, ptr %0, i64 24
  store i32 %1, ptr %7, align 8, !tbaa !11
  %8 = getelementptr inbounds nuw i8, ptr %0, i64 28
  store i32 %2, ptr %8, align 4, !tbaa !12
  %9 = add nsw i32 %1, 1
  %10 = zext nneg i32 %9 to i64
  %11 = icmp slt i32 %1, -1
  %12 = shl nuw nsw i64 %10, 2
  %13 = select i1 %11, i64 -1, i64 %12
  %14 = tail call noalias noundef nonnull ptr @_Znam(i64 noundef %13) #15
  %15 = getelementptr inbounds nuw i8, ptr %0, i64 8
  store ptr %14, ptr %15, align 8, !tbaa !14
  %16 = zext nneg i32 %2 to i64
  %17 = icmp slt i32 %2, 0
  %18 = shl nuw nsw i64 %16, 2
  %19 = select i1 %17, i64 -1, i64 %18
  %20 = tail call noalias noundef nonnull ptr @_Znam(i64 noundef %19) #15
  %21 = getelementptr inbounds nuw i8, ptr %0, i64 16
  store ptr %20, ptr %21, align 8, !tbaa !13
  br label %58

22:                                               ; preds = %3
  %23 = getelementptr inbounds nuw i8, ptr %0, i64 28
  %24 = load i32, ptr %23, align 4, !tbaa !12
  %25 = icmp slt i32 %24, %2
  br i1 %25, label %26, label %39

26:                                               ; preds = %22
  %27 = shl nsw i32 %2, 1
  store i32 %27, ptr %23, align 4, !tbaa !12
  %28 = getelementptr inbounds nuw i8, ptr %0, i64 16
  %29 = load ptr, ptr %28, align 8, !tbaa !13
  %30 = icmp eq ptr %29, null
  br i1 %30, label %32, label %31

31:                                               ; preds = %26
  tail call void @_ZdaPv(ptr noundef nonnull %29) #14
  %.pre = load i32, ptr %23, align 4, !tbaa !12
  %.pre8.pre = load i32, ptr %0, align 8, !tbaa !3
  br label %32

32:                                               ; preds = %31, %26
  %.pre8 = phi i32 [ %.pre8.pre, %31 ], [ %1, %26 ]
  %33 = phi i32 [ %.pre, %31 ], [ %27, %26 ]
  %34 = sext i32 %33 to i64
  %35 = icmp slt i32 %33, 0
  %36 = shl nsw i64 %34, 2
  %37 = select i1 %35, i64 -1, i64 %36
  %38 = tail call noalias noundef nonnull ptr @_Znam(i64 noundef %37) #15
  store ptr %38, ptr %28, align 8, !tbaa !13
  br label %39

39:                                               ; preds = %32, %22
  %40 = phi i32 [ %.pre8, %32 ], [ %1, %22 ]
  %41 = getelementptr inbounds nuw i8, ptr %0, i64 24
  %42 = load i32, ptr %41, align 8, !tbaa !11
  %43 = icmp slt i32 %42, %40
  br i1 %43, label %44, label %58

44:                                               ; preds = %39
  %45 = shl nsw i32 %40, 1
  store i32 %45, ptr %41, align 8, !tbaa !11
  %46 = getelementptr inbounds nuw i8, ptr %0, i64 8
  %47 = load ptr, ptr %46, align 8, !tbaa !14
  %48 = icmp eq ptr %47, null
  br i1 %48, label %50, label %49

49:                                               ; preds = %44
  tail call void @_ZdaPv(ptr noundef nonnull %47) #14
  %.pre9 = load i32, ptr %41, align 8, !tbaa !11
  br label %50

50:                                               ; preds = %49, %44
  %51 = phi i32 [ %.pre9, %49 ], [ %45, %44 ]
  %52 = add nsw i32 %51, 1
  %53 = sext i32 %52 to i64
  %54 = icmp slt i32 %51, -1
  %55 = shl nsw i64 %53, 2
  %56 = select i1 %54, i64 -1, i64 %55
  %57 = tail call noalias noundef nonnull ptr @_Znam(i64 noundef %56) #15
  store ptr %57, ptr %46, align 8, !tbaa !14
  br label %58

58:                                               ; preds = %39, %50, %6
  ret void
}